; Function Attrs: mustprogress nounwind uwtable
define void @_ZN7xgboost6common21AlignedMemWriteStreamD2Ev(ptr noundef nonnull align 8 captures(none) dereferenceable(24) initializes((0, 8)) %0) unnamed_addr #10 align 2 personality ptr @__gxx_personality_v0 {
  store ptr getelementptr inbounds nuw inrange(-16, 24) (i8, ptr @_ZTVN7xgboost6common21AlignedMemWriteStreamE, i64 16), ptr %0, align 8, !tbaa !16
  %2 = getelementptr inbounds nuw i8, ptr %0, i64 16
  %3 = load ptr, ptr %2, align 8, !tbaa !144
  %.not.i = icmp eq ptr %3, null
  br i1 %.not.i, label %_ZNSt10unique_ptrIN7xgboost6common18MemoryBufferStreamESt14default_deleteIS2_EED2Ev.exit, label %_ZNKSt14default_deleteIN7xgboost6common18MemoryBufferStreamEEclEPS2_.exit.i

_ZNKSt14default_deleteIN7xgboost6common18MemoryBufferStreamEEclEPS2_.exit.i: ; preds = %1
  %4 = load ptr, ptr %3, align 8, !tbaa !16
  %5 = getelementptr inbounds nuw i8, ptr %4, i64 24
  %6 = load ptr, ptr %5, align 8
  tail call void %6(ptr noundef nonnull align 8 dereferenceable(24) %3) #22
  br label %_ZNSt10unique_ptrIN7xgboost6common18MemoryBufferStreamESt14default_deleteIS2_EED2Ev.exit

_ZNSt10unique_ptrIN7xgboost6common18MemoryBufferStreamESt14default_deleteIS2_EED2Ev.exit: ; preds = %1, %_ZNKSt14default_deleteIN7xgboost6common18MemoryBufferStreamEEclEPS2_.exit.i
  store ptr null, ptr %2, align 8, !tbaa !144
  store ptr getelementptr inbounds nuw inrange(-16, 24) (i8, ptr @_ZTVN7xgboost6common22AlignedFileWriteStreamE, i64 16), ptr %0, align 8, !tbaa !16
  %7 = getelementptr inbounds nuw i8, ptr %0, i64 8
  %8 = load ptr, ptr %7, align 8, !tbaa !134
  %.not.i.i = icmp eq ptr %8, null
  br i1 %.not.i.i, label %_ZN7xgboost6common22AlignedFileWriteStreamD2Ev.exit, label %_ZNKSt14default_deleteIN4dmlc6StreamEEclEPS1_.exit.i.i

_ZNKSt14default_deleteIN4dmlc6StreamEEclEPS1_.exit.i.i: ; preds = %_ZNSt10unique_ptrIN7xgboost6common18MemoryBufferStreamESt14default_deleteIS2_EED2Ev.exit
  %9 = load ptr, ptr %8, align 8, !tbaa !16
  %10 = getelementptr inbounds nuw i8, ptr %9, i64 24
  %11 = load ptr, ptr %10, align 8
  tail call void %11(ptr noundef nonnull align 8 dereferenceable(8) %8) #22
  br label %_ZN7xgboost6common22AlignedFileWriteStreamD2Ev.exit

_ZN7xgboost6common22AlignedFileWriteStreamD2Ev.exit: ; preds = %_ZNSt10unique_ptrIN7xgboost6common18MemoryBufferStreamESt14default_deleteIS2_EED2Ev.exit, %_ZNKSt14default_deleteIN4dmlc6StreamEEclEPS1_.exit.i.i
  store ptr null, ptr %7, align 8, !tbaa !134
  ret void
}